target datalayout = "e-m:e-p270:32:32-p271:32:32-p272:64:64-i64:64-i128:128-f80:128-n8:16:32:64-S128"
target triple = "x86_64-pc-linux-gnu"

%struct.rlc_lte_stat_t = type { ptr, i32, %struct.rlc_lte_common_stats }
%struct.rlc_lte_common_stats = type { i32, i32, i32, i32 }

@.str.2 = private unnamed_addr constant [15 x i8] c"rlc-3gpp,stat,\00", align 1
@.str.3 = private unnamed_addr constant [9 x i8] c"rlc-3gpp\00", align 1

; Function Attrs: null_pointer_is_valid sspstrong uwtable
define internal void @rlc_lte_stat_init(ptr noundef %0, ptr noundef %1) #0 {
  %3 = alloca ptr, align 8
  %4 = alloca ptr, align 8
  %5 = alloca ptr, align 8
  %6 = alloca ptr, align 8
  %7 = alloca ptr, align 8
  %8 = alloca i64, align 8
  %9 = alloca i64, align 8
  %10 = alloca ptr, align 8
  %11 = alloca ptr, align 8
  store ptr %0, ptr %3, align 8
  store ptr %1, ptr %4, align 8
  call void @llvm.lifetime.start.p0(i64 8, ptr %5) #13
  call void @llvm.lifetime.start.p0(i64 8, ptr %6) #13
  store ptr null, ptr %6, align 8
  call void @llvm.lifetime.start.p0(i64 8, ptr %7) #13
  %12 = load ptr, ptr %3, align 8
  %13 = call i32 @strncmp(ptr noundef %12, ptr noundef @.str.2, i64 noundef 14) #14
  %14 = icmp eq i32 %13, 0
  br i1 %14, label %15, label %18

15:                                               ; preds = %2
  %16 = load ptr, ptr %3, align 8
  %17 = getelementptr i8, ptr %16, i64 14
  store ptr %17, ptr %6, align 8
  br label %19

18:                                               ; preds = %2
  store ptr null, ptr %6, align 8
  br label %19

19:                                               ; preds = %18, %15
  call void @llvm.lifetime.start.p0(i64 8, ptr %8) #13
  store i64 1, ptr %8, align 8
  call void @llvm.lifetime.start.p0(i64 8, ptr %9) #13
  store i64 32, ptr %9, align 8
  call void @llvm.lifetime.start.p0(i64 8, ptr %10) #13
  %20 = load i64, ptr %9, align 8
  %21 = icmp eq i64 %20, 1
  br i1 %21, label %22, label %25

22:                                               ; preds = %19
  %23 = load i64, ptr %8, align 8
  %24 = call noalias ptr @g_malloc0(i64 noundef %23) #15
  store ptr %24, ptr %10, align 8
  br label %46

25:                                               ; preds = %19
  %26 = load i64, ptr %8, align 8
  %27 = call i1 @llvm.is.constant.i64(i64 %26)
  br i1 %27, label %28, label %41

28:                                               ; preds = %25
  %29 = load i64, ptr %9, align 8
  %30 = icmp eq i64 %29, 0
  br i1 %30, label %36, label %31

31:                                               ; preds = %28
  %32 = load i64, ptr %8, align 8
  %33 = load i64, ptr %9, align 8
  %34 = udiv i64 -1, %33
  %35 = icmp ule i64 %32, %34
  br i1 %35, label %36, label %41

36:                                               ; preds = %31, %28
  %37 = load i64, ptr %8, align 8
  %38 = load i64, ptr %9, align 8
  %39 = mul i64 %37, %38
  %40 = call noalias ptr @g_malloc0(i64 noundef %39) #15
  store ptr %40, ptr %10, align 8
  br label %45

41:                                               ; preds = %31, %25
  %42 = load i64, ptr %8, align 8
  %43 = load i64, ptr %9, align 8
  %44 = call noalias ptr @g_malloc0_n(i64 noundef %42, i64 noundef %43) #16
  store ptr %44, ptr %10, align 8
  br label %45

45:                                               ; preds = %41, %36
  br label %46

46:                                               ; preds = %45, %22
  %47 = load ptr, ptr %10, align 8
  store ptr %47, ptr %11, align 8
  call void @llvm.lifetime.end.p0(i64 8, ptr %10) #13
  call void @llvm.lifetime.end.p0(i64 8, ptr %9) #13
  call void @llvm.lifetime.end.p0(i64 8, ptr %8) #13
  %48 = load ptr, ptr %11, align 8
  store ptr %48, ptr %5, align 8
  %49 = load ptr, ptr %5, align 8
  %50 = getelementptr inbounds nuw %struct.rlc_lte_stat_t, ptr %49, i32 0, i32 0
  store ptr null, ptr %50, align 8
  %51 = load ptr, ptr %5, align 8
  %52 = load ptr, ptr %6, align 8
  %53 = call ptr @register_tap_listener(ptr noundef @.str.3, ptr noundef %51, ptr noundef %52, i32 noundef 0, ptr noundef @rlc_lte_stat_reset, ptr noundef @rlc_lte_stat_packet, ptr noundef @rlc_lte_stat_draw, ptr noundef null)
  store ptr %53, ptr %7, align 8
  %54 = load ptr, ptr %7, align 8
  %55 = icmp ne ptr %54, null
  br i1 %55, label %56, label %60

56:                                               ; preds = %46
  %57 = load ptr, ptr %7, align 8
  %58 = call ptr @g_string_free(ptr noundef %57, i32 noundef 1)
  %59 = load ptr, ptr %5, align 8
  call void @g_free(ptr noundef %59)
  call void @exit(i32 noundef 1) #17
  unreachable

60:                                               ; preds = %46
  call void @llvm.lifetime.end.p0(i64 8, ptr %7) #13
  call void @llvm.lifetime.end.p0(i64 8, ptr %6) #13
  call void @llvm.lifetime.end.p0(i64 8, ptr %5) #13
  ret void
}