; Function Attrs: null_pointer_is_valid sspstrong uwtable
define internal void @rlc_lte_stat_init(ptr noundef %0, ptr readnone captures(none) %1) #0 {
  %3 = tail call i32 @strncmp(ptr noundef %0, ptr noundef nonnull dereferenceable(15) @.str.2, i64 noundef 14) #10
  %4 = icmp eq i32 %3, 0
  %5 = getelementptr i8, ptr %0, i64 14
  %.0 = select i1 %4, ptr %5, ptr null
  %6 = tail call noalias dereferenceable_or_null(32) ptr @g_malloc0(i64 noundef 32) #11
  store ptr null, ptr %6, align 8
  %7 = tail call ptr @register_tap_listener(ptr noundef nonnull @.str.3, ptr noundef %6, ptr noundef %.0, i32 noundef 0, ptr noundef nonnull @rlc_lte_stat_reset, ptr noundef nonnull @rlc_lte_stat_packet, ptr noundef nonnull @rlc_lte_stat_draw, ptr noundef null)
  %.not = icmp eq ptr %7, null
  br i1 %.not, label %10, label %8

8:                                                ; preds = %2
  %9 = tail call ptr @g_string_free(ptr noundef nonnull %7, i32 noundef 1)
  tail call void @g_free(ptr noundef %6)
  tail call void @exit(i32 noundef 1) #12
  unreachable

10:                                               ; preds = %2
  ret void
}